; ModuleID = 'source-C-CXX/55/742.c'
source_filename = "source-C-CXX/55/742.c"
target datalayout = "e-m:e-p270:32:32-p271:32:32-p272:64:64-i64:64-f80:128-n8:16:32:64-S128"
target triple = "x86_64-pc-linux-gnu"

@.str = private unnamed_addr constant [3 x i8] c"%d\00", align 1

; Function Attrs: nofree nounwind sspstrong uwtable
define dso_local i32 @main(i32 %0, i8** nocapture readnone %1) local_unnamed_addr #0 {
  %3 = alloca i32, align 4
  %4 = bitcast i32* %3 to i8*
  call void @llvm.lifetime.start.p0i8(i64 4, i8* nonnull %4) #3
  %5 = call i32 (i8*, ...) @__isoc99_scanf(i8* getelementptr inbounds ([3 x i8], [3 x i8]* @.str, i64 0, i64 0), i32* nonnull %3)
  %6 = load i32, i32* %3, align 4, !tbaa !5
  %7 = srem i32 %6, 10
  %8 = sdiv i32 %6, 10
  %9 = srem i32 %8, 10
  %10 = mul nsw i32 %7, 10
  %11 = add nsw i32 %10, %9
  %12 = sdiv i32 %6, 100
  %13 = srem i32 %12, 10
  %14 = mul nsw i32 %11, 10
  %15 = add nsw i32 %14, %13
  %16 = sdiv i32 %6, 1000
  %17 = srem i32 %16, 10
  %18 = mul nsw i32 %15, 10
  %19 = add nsw i32 %18, %17
  %20 = sdiv i32 %6, 10000
  %21 = srem i32 %20, 10
  %22 = mul nsw i32 %19, 10
  %23 = add nsw i32 %22, %21
  %24 = icmp eq i32 %21, 0
  %25 = sdiv i32 %23, 10
  %26 = select i1 %24, i32 %25, i32 %23
  %27 = icmp eq i32 %17, 0
  %28 = sdiv i32 %26, 10
  %29 = select i1 %27, i32 %28, i32 %26
  %30 = icmp eq i32 %13, 0
  %31 = sdiv i32 %29, 10
  %32 = select i1 %30, i32 %31, i32 %29
  %33 = icmp eq i32 %9, 0
  %34 = sdiv i32 %32, 10
  %35 = select i1 %33, i32 %34, i32 %32
  %36 = call i32 (i8*, ...) @printf(i8* nonnull dereferenceable(1) getelementptr inbounds ([3 x i8], [3 x i8]* @.str, i64 0, i64 0), i32 %35)
  call void @llvm.lifetime.end.p0i8(i64 4, i8* nonnull %4) #3
  ret i32 0
}

; Function Attrs: argmemonly mustprogress nofree nosync nounwind willreturn
declare void @llvm.lifetime.start.p0i8(i64 immarg, i8* nocapture) #1

; Function Attrs: nofree nounwind
declare noundef i32 @__isoc99_scanf(i8* nocapture noundef readonly, ...) local_unnamed_addr #2

; Function Attrs: nofree nounwind
declare noundef i32 @printf(i8* nocapture noundef readonly, ...) local_unnamed_addr #2

; Function Attrs: argmemonly mustprogress nofree nosync nounwind willreturn
declare void @llvm.lifetime.end.p0i8(i64 immarg, i8* nocapture) #1


!llvm.module.flags = !{!0, !1, !2, !3}
!llvm.ident = !{!4}

!0 = !{i32 1, !"wchar_size", i32 4}
!1 = !{i32 7, !"PIC Level", i32 2}
!2 = !{i32 7, !"PIE Level", i32 2}
!3 = !{i32 7, !"uwtable", i32 1}
!4 = !{!"clang version 13.0.0"}
!5 = !{!6, !6, i64 0}
!6 = !{!"int", !7, i64 0}
!7 = !{!"omnipotent char", !8, i64 0}
!8 = !{!"Simple C/C++ TBAA"}
